; Function Attrs: mustprogress uwtable
define noundef range(i64 -1, 4294967296) i64 @_ZN5boost10filesystem6detail15hard_link_countERKNS0_4pathEPNS_6system10error_codeE(ptr noundef nonnull align 8 dereferenceable(32) %0, ptr noundef %1) local_unnamed_addr #5 personality ptr @__gxx_personality_v0 {
  %3 = alloca %struct.statx, align 8
  %.not = icmp eq ptr %1, null
  br i1 %.not, label %5, label %4

4:                                                ; preds = %2
  tail call void @llvm.memset.p0.i64(ptr noundef nonnull align 8 dereferenceable(24) %1, i8 0, i64 24, i1 false)
  br label %5

5:                                                ; preds = %4, %2
  call void @llvm.lifetime.start.p0(i64 256, ptr nonnull %3) #27
  %6 = load ptr, ptr %0, align 8, !tbaa !13
  %7 = call noundef i32 @statx(i32 noundef -100, ptr noundef %6, i32 noundef 2048, i32 noundef 4, ptr noundef nonnull %3) #27
  %8 = icmp slt i32 %7, 0
  br i1 %8, label %9, label %12, !prof !41

9:                                                ; preds = %5
  %10 = tail call ptr @__errno_location() #30
  %11 = load i32, ptr %10, align 4, !tbaa !19
  call void @_ZN5boost10filesystem10emit_errorEiRKNS0_4pathEPNS_6system10error_codeEPKc(i32 noundef %11, ptr noundef nonnull align 8 dereferenceable(32) %0, ptr noundef %1, ptr noundef nonnull @.str.14)
  br label %20

12:                                               ; preds = %5
  %13 = load i32, ptr %3, align 8, !tbaa !28
  %14 = and i32 %13, 4
  %.not8.not = icmp eq i32 %14, 0
  br i1 %.not8.not, label %15, label %16, !prof !41

15:                                               ; preds = %12
  call void @_ZN5boost10filesystem10emit_errorEiRKNS0_4pathEPNS_6system10error_codeEPKc(i32 noundef 38, ptr noundef nonnull align 8 dereferenceable(32) %0, ptr noundef %1, ptr noundef nonnull @.str.14)
  br label %20

16:                                               ; preds = %12
  %17 = getelementptr inbounds nuw i8, ptr %3, i64 16
  %18 = load i32, ptr %17, align 8, !tbaa !158
  %19 = zext i32 %18 to i64
  br label %20

20:                                               ; preds = %16, %15, %9
  %.0 = phi i64 [ -1, %9 ], [ -1, %15 ], [ %19, %16 ]
  call void @llvm.lifetime.end.p0(i64 256, ptr nonnull %3) #27
  ret i64 %.0
}